target datalayout = "e-m:e-p270:32:32-p271:32:32-p272:64:64-i64:64-i128:128-f80:128-n8:16:32:64-S128"
target triple = "x86_64-pc-linux-gnu"

@.str = private unnamed_addr constant [29 x i8] c"could not open file \22%s\22: %m\00", align 1
@pg_file_create_mode = external global i32, align 4
@.str.13 = private unnamed_addr constant [31 x i8] c"could not create file \22%s\22: %m\00", align 1
@.str.14 = private unnamed_addr constant [42 x i8] c"error while cloning file \22%s\22 to \22%s\22: %s\00", align 1

; Function Attrs: nounwind uwtable
define internal void @copy_file_clone(ptr noundef %0, ptr noundef %1, ptr noundef %2) #0 {
  %4 = alloca ptr, align 8
  %5 = alloca ptr, align 8
  %6 = alloca ptr, align 8
  %7 = alloca i32, align 4
  %8 = alloca i32, align 4
  %9 = alloca i32, align 4
  store ptr %0, ptr %4, align 8
  store ptr %1, ptr %5, align 8
  store ptr %2, ptr %6, align 8
  call void @llvm.lifetime.start.p0(i64 4, ptr %7) #7
  call void @llvm.lifetime.start.p0(i64 4, ptr %8) #7
  %10 = load ptr, ptr %4, align 8
  %11 = call i32 (ptr, i32, ...) @open(ptr noundef %10, i32 noundef 0, i32 noundef 0)
  store i32 %11, ptr %7, align 4
  %12 = icmp slt i32 %11, 0
  br i1 %12, label %13, label %18

13:                                               ; preds = %3
  br label %14

14:                                               ; preds = %13
  %15 = load ptr, ptr %4, align 8
  call void (i32, i32, ptr, ...) @pg_log_generic(i32 noundef 4, i32 noundef 0, ptr noundef @.str, ptr noundef %15)
  call void @exit(i32 noundef 1) #8
  unreachable

16:                                               ; No predecessors!
  br label %17

17:                                               ; preds = %16
  br label %18

18:                                               ; preds = %17, %3
  %19 = load ptr, ptr %5, align 8
  %20 = load i32, ptr @pg_file_create_mode, align 4
  %21 = call i32 (ptr, i32, ...) @open(ptr noundef %19, i32 noundef 194, i32 noundef %20)
  store i32 %21, ptr %8, align 4
  %22 = icmp slt i32 %21, 0
  br i1 %22, label %23, label %28

23:                                               ; preds = %18
  br label %24

24:                                               ; preds = %23
  %25 = load ptr, ptr %5, align 8
  call void (i32, i32, ptr, ...) @pg_log_generic(i32 noundef 4, i32 noundef 0, ptr noundef @.str.13, ptr noundef %25)
  call void @exit(i32 noundef 1) #8
  unreachable

26:                                               ; No predecessors!
  br label %27

27:                                               ; preds = %26
  br label %28

28:                                               ; preds = %27, %18
  %29 = load i32, ptr %8, align 4
  %30 = load i32, ptr %7, align 4
  %31 = call i32 (i32, i64, ...) @ioctl(i32 noundef %29, i64 noundef 1074041865, i32 noundef %30) #7
  %32 = icmp slt i32 %31, 0
  br i1 %32, label %33, label %45

33:                                               ; preds = %28
  call void @llvm.lifetime.start.p0(i64 4, ptr %9) #7
  %34 = call ptr @__errno_location() #9
  %35 = load i32, ptr %34, align 4
  store i32 %35, ptr %9, align 4
  %36 = load ptr, ptr %5, align 8
  %37 = call i32 @unlink(ptr noundef %36) #7
  br label %38

38:                                               ; preds = %33
  %39 = load ptr, ptr %4, align 8
  %40 = load ptr, ptr %5, align 8
  %41 = load i32, ptr %9, align 4
  %42 = call ptr @pg_strerror(i32 noundef %41)
  call void (i32, i32, ptr, ...) @pg_log_generic(i32 noundef 4, i32 noundef 0, ptr noundef @.str.14, ptr noundef %39, ptr noundef %40, ptr noundef %42)
  call void @exit(i32 noundef 1) #8
  unreachable

43:                                               ; No predecessors!
  br label %44

44:                                               ; preds = %43
  call void @llvm.lifetime.end.p0(i64 4, ptr %9) #7
  br label %45

45:                                               ; preds = %44, %28
  %46 = load i32, ptr %7, align 4
  %47 = call i32 @close(i32 noundef %46)
  %48 = load i32, ptr %8, align 4
  %49 = call i32 @close(i32 noundef %48)
  call void @llvm.lifetime.end.p0(i64 4, ptr %8) #7
  call void @llvm.lifetime.end.p0(i64 4, ptr %7) #7
  %50 = load ptr, ptr %4, align 8
  %51 = load ptr, ptr %6, align 8
  call void @checksum_file(ptr noundef %50, ptr noundef %51)
  ret void
}