; Function Attrs: nounwind uwtable
define internal void @copy_file_clone(ptr noundef %0, ptr noundef %1, ptr noundef %2) unnamed_addr #0 {
  %4 = tail call i32 (ptr, i32, ...) @open(ptr noundef %0, i32 noundef 0, i32 noundef 0) #7
  %5 = icmp slt i32 %4, 0
  br i1 %5, label %6, label %7

6:                                                ; preds = %3
  tail call void (i32, i32, ptr, ...) @pg_log_generic(i32 noundef 4, i32 noundef 0, ptr noundef nonnull @.str, ptr noundef %0) #7
  tail call void @exit(i32 noundef 1) #8
  unreachable

7:                                                ; preds = %3
  %8 = load i32, ptr @pg_file_create_mode, align 4
  %9 = tail call i32 (ptr, i32, ...) @open(ptr noundef %1, i32 noundef 194, i32 noundef %8) #7
  %10 = icmp slt i32 %9, 0
  br i1 %10, label %11, label %12

11:                                               ; preds = %7
  tail call void (i32, i32, ptr, ...) @pg_log_generic(i32 noundef 4, i32 noundef 0, ptr noundef nonnull @.str.13, ptr noundef %1) #7
  tail call void @exit(i32 noundef 1) #8
  unreachable

12:                                               ; preds = %7
  %13 = tail call i32 (i32, i64, ...) @ioctl(i32 noundef %9, i64 noundef 1074041865, i32 noundef %4) #7
  %14 = icmp slt i32 %13, 0
  br i1 %14, label %15, label %20

15:                                               ; preds = %12
  %16 = tail call ptr @__errno_location() #9
  %17 = load i32, ptr %16, align 4
  %18 = tail call i32 @unlink(ptr noundef %1) #7
  %19 = tail call ptr @pg_strerror(i32 noundef %17) #7
  tail call void (i32, i32, ptr, ...) @pg_log_generic(i32 noundef 4, i32 noundef 0, ptr noundef nonnull @.str.14, ptr noundef %0, ptr noundef %1, ptr noundef %19) #7
  tail call void @exit(i32 noundef 1) #8
  unreachable

20:                                               ; preds = %12
  %21 = tail call i32 @close(i32 noundef %4) #7
  %22 = tail call i32 @close(i32 noundef %9) #7
  tail call fastcc void @checksum_file(ptr noundef %0, ptr noundef %2)
  ret void
}